target datalayout = "e-m:e-p270:32:32-p271:32:32-p272:64:64-i64:64-i128:128-f80:128-n8:16:32:64-S128"
target triple = "x86_64-pc-linux-gnu"

%struct.mbedtls_mpi = type { ptr, i16, i16 }
%struct.mbedtls_rsa_context = type { i32, i64, %struct.mbedtls_mpi, %struct.mbedtls_mpi, %struct.mbedtls_mpi, %struct.mbedtls_mpi, %struct.mbedtls_mpi, %struct.mbedtls_mpi, %struct.mbedtls_mpi, %struct.mbedtls_mpi, %struct.mbedtls_mpi, %struct.mbedtls_mpi, %struct.mbedtls_mpi, %struct.mbedtls_mpi, %struct.mbedtls_mpi, i32, i32 }

; Function Attrs: nounwind uwtable
define hidden i32 @mbedtls_rsa_check_privkey(ptr noundef %0) #0 {
  %2 = alloca i32, align 4
  %3 = alloca ptr, align 8
  store ptr %0, ptr %3, align 8, !tbaa !3
  %4 = load ptr, ptr %3, align 8, !tbaa !3
  %5 = call i32 @mbedtls_rsa_check_pubkey(ptr noundef %4)
  %6 = icmp ne i32 %5, 0
  br i1 %6, label %11, label %7

7:                                                ; preds = %1
  %8 = load ptr, ptr %3, align 8, !tbaa !3
  %9 = call i32 @rsa_check_context(ptr noundef %8, i32 noundef 1, i32 noundef 1)
  %10 = icmp ne i32 %9, 0
  br i1 %10, label %11, label %12

11:                                               ; preds = %7, %1
  store i32 -16896, ptr %2, align 4
  br label %44

12:                                               ; preds = %7
  %13 = load ptr, ptr %3, align 8, !tbaa !3
  %14 = getelementptr inbounds nuw %struct.mbedtls_rsa_context, ptr %13, i32 0, i32 2
  %15 = load ptr, ptr %3, align 8, !tbaa !3
  %16 = getelementptr inbounds nuw %struct.mbedtls_rsa_context, ptr %15, i32 0, i32 5
  %17 = load ptr, ptr %3, align 8, !tbaa !3
  %18 = getelementptr inbounds nuw %struct.mbedtls_rsa_context, ptr %17, i32 0, i32 6
  %19 = load ptr, ptr %3, align 8, !tbaa !3
  %20 = getelementptr inbounds nuw %struct.mbedtls_rsa_context, ptr %19, i32 0, i32 4
  %21 = load ptr, ptr %3, align 8, !tbaa !3
  %22 = getelementptr inbounds nuw %struct.mbedtls_rsa_context, ptr %21, i32 0, i32 3
  %23 = call i32 @mbedtls_rsa_validate_params(ptr noundef %14, ptr noundef %16, ptr noundef %18, ptr noundef %20, ptr noundef %22, ptr noundef null, ptr noundef null)
  %24 = icmp ne i32 %23, 0
  br i1 %24, label %25, label %26

25:                                               ; preds = %12
  store i32 -16896, ptr %2, align 4
  br label %44

26:                                               ; preds = %12
  %27 = load ptr, ptr %3, align 8, !tbaa !3
  %28 = getelementptr inbounds nuw %struct.mbedtls_rsa_context, ptr %27, i32 0, i32 5
  %29 = load ptr, ptr %3, align 8, !tbaa !3
  %30 = getelementptr inbounds nuw %struct.mbedtls_rsa_context, ptr %29, i32 0, i32 6
  %31 = load ptr, ptr %3, align 8, !tbaa !3
  %32 = getelementptr inbounds nuw %struct.mbedtls_rsa_context, ptr %31, i32 0, i32 4
  %33 = load ptr, ptr %3, align 8, !tbaa !3
  %34 = getelementptr inbounds nuw %struct.mbedtls_rsa_context, ptr %33, i32 0, i32 7
  %35 = load ptr, ptr %3, align 8, !tbaa !3
  %36 = getelementptr inbounds nuw %struct.mbedtls_rsa_context, ptr %35, i32 0, i32 8
  %37 = load ptr, ptr %3, align 8, !tbaa !3
  %38 = getelementptr inbounds nuw %struct.mbedtls_rsa_context, ptr %37, i32 0, i32 9
  %39 = call i32 @mbedtls_rsa_validate_crt(ptr noundef %28, ptr noundef %30, ptr noundef %32, ptr noundef %34, ptr noundef %36, ptr noundef %38)
  %40 = icmp ne i32 %39, 0
  br i1 %40, label %41, label %42

41:                                               ; preds = %26
  store i32 -16896, ptr %2, align 4
  br label %44

42:                                               ; preds = %26
  br label %43

43:                                               ; preds = %42
  store i32 0, ptr %2, align 4
  br label %44

44:                                               ; preds = %43, %41, %25, %11
  %45 = load i32, ptr %2, align 4
  ret i32 %45
}