; Function Attrs: nounwind uwtable
define hidden range(i32 -16896, 1) i32 @mbedtls_rsa_check_privkey(ptr noundef %0) local_unnamed_addr #0 {
  %2 = tail call i32 @mbedtls_rsa_check_pubkey(ptr noundef %0)
  %.not = icmp eq i32 %2, 0
  br i1 %.not, label %3, label %17

3:                                                ; preds = %1
  %4 = tail call fastcc i32 @rsa_check_context(ptr noundef %0, i32 noundef 1)
  %.not13 = icmp eq i32 %4, 0
  br i1 %.not13, label %5, label %17

5:                                                ; preds = %3
  %6 = getelementptr inbounds nuw i8, ptr %0, i64 16
  %7 = getelementptr inbounds nuw i8, ptr %0, i64 64
  %8 = getelementptr inbounds nuw i8, ptr %0, i64 80
  %9 = getelementptr inbounds nuw i8, ptr %0, i64 48
  %10 = getelementptr inbounds nuw i8, ptr %0, i64 32
  %11 = tail call i32 @mbedtls_rsa_validate_params(ptr noundef nonnull %6, ptr noundef nonnull %7, ptr noundef nonnull %8, ptr noundef nonnull %9, ptr noundef nonnull %10, ptr noundef null, ptr noundef null) #14
  %.not14 = icmp eq i32 %11, 0
  br i1 %.not14, label %12, label %17

12:                                               ; preds = %5
  %13 = getelementptr inbounds nuw i8, ptr %0, i64 96
  %14 = getelementptr inbounds nuw i8, ptr %0, i64 112
  %15 = getelementptr inbounds nuw i8, ptr %0, i64 128
  %16 = tail call i32 @mbedtls_rsa_validate_crt(ptr noundef nonnull %7, ptr noundef nonnull %8, ptr noundef nonnull %9, ptr noundef nonnull %13, ptr noundef nonnull %14, ptr noundef nonnull %15) #14
  %.not15 = icmp eq i32 %16, 0
  %. = select i1 %.not15, i32 0, i32 -16896
  br label %17

17:                                               ; preds = %12, %5, %1, %3
  %.0 = phi i32 [ -16896, %3 ], [ -16896, %1 ], [ -16896, %5 ], [ %., %12 ]
  ret i32 %.0
}